Certificate:
    Data:
        Version: 3 (0x2)
        Serial Number: 2 (0x2)
        Signature Algorithm: sha256WithRSAEncryption
        Issuer: C=ES, ST=Catalunya, L=Barcelona, O=UPC, OU=DMAG, CN=Certificate Authority
        Validity
            Not Before: Jul  5 11:08:50 2024 GMT
            Not After : Jul  5 11:08:50 2025 GMT
        Subject: C=ES, ST=Catalunya, L=Barcelona, O=UPC, OU=DMAG, CN=provider
        Subject Public Key Info:
            Public Key Algorithm: rsaEncryption
                Public-Key: (2048 bit)
                Modulus:
                    00:91:ce:2d:47:89:85:aa:b2:f5:70:1f:e6:cb:59:
                    f0:6f:6c:ad:89:3b:59:c0:ff:fe:b6:2c:0e:78:3f:
                    1e:56:63:b4:13:2f:38:6d:9c:cb:05:f4:c7:3b:22:
                    b5:f1:f9:0b:74:00:20:94:60:4a:4f:7d:d3:86:54:
                    2e:f1:85:d2:ee:d4:3c:db:2c:62:14:d6:37:b5:6c:
                    33:d8:4c:db:8f:76:9a:70:27:5b:9d:0d:ce:e0:e4:
                    99:55:69:0c:23:88:69:5b:84:c5:d4:5a:84:75:2a:
                    c3:e1:19:df:b8:8e:01:05:14:8b:85:3d:35:b9:e4:
                    11:bc:a0:7f:6c:bc:44:c5:65:ba:75:64:cb:57:85:
                    01:15:76:5a:7b:d7:7a:0f:23:71:cf:ad:a4:af:12:
                    7a:ab:5e:ca:4b:2e:74:08:61:ee:de:a7:a1:24:72:
                    bb:7b:5c:69:79:c4:1a:d0:1a:02:99:e9:c3:0e:a5:
                    f4:da:8c:f7:a1:21:55:37:c2:71:8d:f4:74:33:22:
                    80:c1:1e:c1:f7:24:7a:ec:a1:a7:83:17:e5:4d:77:
                    a7:47:72:a7:17:ea:cb:f7:37:88:9f:2b:05:41:6d:
                    26:a1:c2:f1:ad:cb:c9:ba:b2:1d:c8:56:3d:03:62:
                    fe:a9:5f:57:de:b1:0b:31:4c:1a:c6:82:71:d0:4f:
                    1d:ff
                Exponent: 65537 (0x10001)
        X509v3 extensions:
            X509v3 Subject Key Identifier: 
                45:D7:73:45:90:A6:B3:9E:5F:E2:62:93:0D:83:A1:1E:69:45:8C:04
            X509v3 Authority Key Identifier: 
                47:D4:EA:BD:47:29:E2:D1:F9:0A:F2:66:60:F6:95:D9:AC:17:AB:BA
            X509v3 Basic Constraints: 
                CA:FALSE
            X509v3 Key Usage: 
                Digital Signature, Key Encipherment
    Signature Algorithm: sha256WithRSAEncryption
    Signature Value:
        47:f3:cf:48:d8:b3:38:15:c7:82:d5:cf:28:d0:53:b2:ad:5b:
        cd:e0:0e:91:f7:d1:b4:5f:0c:1a:a1:74:1e:6f:9c:bf:de:b1:
        52:98:e7:0c:c7:25:39:d8:25:20:d5:e1:72:d5:4a:eb:cd:da:
        93:bd:72:c2:bc:e7:32:29:6d:bc:3b:0b:35:72:e0:97:53:5a:
        98:e8:06:96:de:db:72:8e:17:76:d3:8f:11:65:a3:0c:de:ad:
        d7:64:98:fe:67:fd:d4:b9:c1:aa:60:00:5f:8d:82:84:a6:ff:
        31:7f:67:84:5e:d4:96:ca:07:fa:d9:5b:23:b6:d5:c3:ce:76:
        e5:c7:14:f4:ba:31:f1:57:b3:d3:ca:1b:19:9a:ad:e5:d6:c1:
        f1:71:63:0a:e3:93:75:06:37:2d:5d:cd:d9:c2:b2:6d:00:dd:
        be:58:6e:f3:38:ae:13:e2:c3:84:00:2c:15:d0:09:2f:33:21:
        12:62:6a:64:ee:40:9d:96:31:15:83:7a:4b:3e:21:ab:df:9b:
        80:49:a5:5d:a5:6e:86:e4:98:de:8c:d1:4e:80:58:34:ae:5c:
        43:f7:57:81:c2:9f:e5:96:cc:0e:40:04:dd:0c:89:c0:6c:f7:
        a7:04:05:5d:df:75:4a:5d:96:63:f0:4b:8f:6f:99:42:c4:2e:
        08:fa:25:20:b7:43:5c:34:13:04:d2:42:7b:3b:c7:60:9e:09:
        a2:82:4e:40:c8:42:1b:8e:4f:ac:1e:46:2e:20:a1:04:2d:ef:
        9a:2b:66:2d:5c:ec:27:b3:11:0c:7d:f6:14:23:42:61:22:82:
        70:32:89:a4:66:c5:2e:e0:8b:91:9d:db:0b:f1:4e:44:a9:6c:
        bb:22:64:09:0a:04:04:b4:45:37:82:7f:d9:0f:e3:6f:5b:d7:
        e8:9f:bd:45:51:f3:76:72:27:95:67:70:41:39:c1:9d:5d:8f:
        ed:71:25:bc:62:7a:7e:42:4f:0f:f8:0d:38:52:43:f7:c9:fb:
        88:b3:eb:b7:3c:45:84:24:81:c1:b8:cf:1b:f5:d2:37:e0:75:
        0f:fc:78:81:17:bc:eb:32:54:8a:3e:a4:fe:de:3c:78:20:be:
        4d:f1:ff:b9:46:13:b7:ba:d6:b5:f9:72:c2:df:e8:8a:e6:9f:
        a3:57:99:ba:bb:d8:00:e6:90:94:d9:79:ec:0c:d3:96:cc:e6:
        9c:ea:9b:46:dd:6e:90:fe:a9:ab:c5:76:d3:e3:c3:23:5f:b0:
        ae:bd:c7:63:43:73:01:f4:74:1e:b6:11:15:3f:cc:f7:f6:f7:
        2f:01:e6:47:ff:1d:49:fd:e5:52:ee:77:2c:eb:27:e6:45:73:
        02:ee:2e:ff:da:25:85:42
-----BEGIN CERTIFICATE-----
MIIErDCCApSgAwIBAgIBAjANBgkqhkiG9w0BAQsFADByMQswCQYDVQQGEwJFUzES
MBAGA1UECAwJQ2F0YWx1bnlhMRIwEAYDVQQHDAlCYXJjZWxvbmExDDAKBgNVBAoM
A1VQQzENMAsGA1UECwwERE1BRzEeMBwGA1UEAwwVQ2VydGlmaWNhdGUgQXV0aG9y
aXR5MB4XDTI0MDcwNTExMDg1MFoXDTI1MDcwNTExMDg1MFowZTELMAkGA1UEBhMC
RVMxEjAQBgNVBAgMCUNhdGFsdW55YTESMBAGA1UEBwwJQmFyY2Vsb25hMQwwCgYD
VQQKDANVUEMxDTALBgNVBAsMBERNQUcxETAPBgNVBAMMCHByb3ZpZGVyMIIBIjAN
BgkqhkiG9w0BAQEFAAOCAQ8AMIIBCgKCAQEAkc4tR4mFqrL1cB/my1nwb2ytiTtZ
wP/+tiwOeD8eVmO0Ey84bZzLBfTHOyK18fkLdAAglGBKT33ThlQu8YXS7tQ82yxi
FNY3tWwz2Ezbj3aacCdbnQ3O4OSZVWkMI4hpW4TF1FqEdSrD4RnfuI4BBRSLhT01
ueQRvKB/bLxExWW6dWTLV4UBFXZae9d6DyNxz62krxJ6q17KSy50CGHu3qehJHK7
e1xpecQa0BoCmenDDqX02oz3oSFVN8JxjfR0MyKAwR7B9yR67KGngxflTXenR3Kn
F+rL9zeInysFQW0mocLxrcvJurIdyFY9A2L+qV9X3rELMUwaxoJx0E8d/wIDAQAB
o1owWDAdBgNVHQ4EFgQURddzRZCms55f4mKTDYOhHmlFjAQwHwYDVR0jBBgwFoAU
R9TqvUcp4tH5CvJmYPaV2awXq7owCQYDVR0TBAIwADALBgNVHQ8EBAMCBaAwDQYJ
KoZIhvcNAQELBQADggIBAEfzz0jYszgVx4LVzyjQU7KtW83gDpH30bRfDBqhdB5v
nL/esVKY5wzHJTnYJSDV4XLVSuvN2pO9csK85zIpbbw7CzVy4JdTWpjoBpbe23KO
F3bTjxFlowzerddkmP5n/dS5wapgAF+NgoSm/zF/Z4Re1JbKB/rZWyO21cPOduXH
FPS6MfFXs9PKGxmareXWwfFxYwrjk3UGNy1dzdnCsm0A3b5YbvM4rhPiw4QALBXQ
CS8zIRJiamTuQJ2WMRWDeks+Iavfm4BJpV2lbobkmN6M0U6AWDSuXEP3V4HCn+WW
zA5ABN0MicBs96cEBV3fdUpdlmPwS49vmULELgj6JSC3Q1w0EwTSQns7x2CeCaKC
TkDIQhuOT6weRi4goQQt75orZi1c7CezEQx99hQjQmEignAyiaRmxS7gi5Gd2wvx
TkSpbLsiZAkKBAS0RTeCf9kP429b1+ifvUVR83ZyJ5VncEE5wZ1dj+1xJbxien5C
Tw/4DThSQ/fJ+4iz67c8RYQkgcG4zxv10jfgdQ/8eIEXvOsyVIo+pP7ePHggvk3x
/7lGE7e61rX5csLf6Irmn6NXmbq72ADmkJTZeewM05bM5pzqm0bdbpD+qavFdtPj
wyNfsK69x2NDcwH0dB62ERU/zPf29y8B5kf/HUn95VLudyzrJ+ZFcwLuLv/aJYVC
-----END CERTIFICATE-----
