Certificate:
    Data:
        Version: 3 (0x2)
        Serial Number: 3 (0x3)
        Signature Algorithm: sha256WithRSAEncryption
        Issuer: C=ES, ST=Catalunya, L=Barcelona, O=UPC, OU=DMAG, CN=Certificate Authority
        Validity
            Not Before: Jul  5 11:08:50 2024 GMT
            Not After : Jul  5 11:08:50 2025 GMT
        Subject: C=ES, ST=Catalunya, L=Barcelona, O=UPC, OU=DMAG, CN=localhost
        Subject Public Key Info:
            Public Key Algorithm: rsaEncryption
                Public-Key: (2048 bit)
                Modulus:
                    00:bd:75:c1:c7:ff:b6:13:16:d9:33:b4:43:06:a3:
                    f6:84:98:b0:fc:87:49:1a:ce:0b:e0:c9:09:79:46:
                    ce:be:fc:18:2b:a4:e2:42:46:ca:db:32:b5:f6:7c:
                    a6:5e:d6:5c:da:a9:00:4c:f5:b8:2f:97:79:f8:1b:
                    52:25:a4:ab:29:b0:98:2e:24:9a:bf:28:78:95:43:
                    f3:7f:4a:2c:c7:eb:66:11:4f:0c:07:51:62:01:15:
                    6f:70:66:8d:a7:82:a0:74:d9:8c:b0:63:80:52:35:
                    37:44:87:04:ea:73:95:34:d9:97:52:ec:64:74:78:
                    a2:dd:df:32:d9:f4:fc:e4:09:ee:19:d2:d0:65:a4:
                    37:31:6a:c2:a8:6b:5d:d8:bc:ec:29:d7:f0:74:2f:
                    3d:4b:dc:7d:cb:5f:c8:e0:b0:dc:62:07:f2:ae:1f:
                    71:e0:d3:92:b2:58:93:f7:0c:47:37:9c:9a:98:9a:
                    39:04:f2:e6:c6:0b:18:eb:1a:dd:09:df:b0:cc:52:
                    0d:3e:10:a3:00:0b:8a:cb:83:b5:91:3b:03:c7:ae:
                    84:13:93:0b:56:54:47:2b:da:e6:bf:6f:e4:bb:ea:
                    31:8f:68:ca:19:40:72:64:3a:c6:5a:fd:4c:f3:cd:
                    a3:d4:8c:31:c0:44:d5:fe:6a:bf:fa:c8:aa:de:e8:
                    7e:37
                Exponent: 65537 (0x10001)
        X509v3 extensions:
            X509v3 Subject Key Identifier: 
                1D:19:6A:AA:2E:A4:3F:D9:70:D3:C8:7F:7C:50:DB:71:A4:00:9C:A6
            X509v3 Authority Key Identifier: 
                47:D4:EA:BD:47:29:E2:D1:F9:0A:F2:66:60:F6:95:D9:AC:17:AB:BA
            X509v3 Basic Constraints: 
                CA:FALSE
            X509v3 Key Usage: 
                Digital Signature, Key Encipherment
    Signature Algorithm: sha256WithRSAEncryption
    Signature Value:
        87:3d:98:97:82:94:f5:e8:d9:4b:39:1c:cb:93:9d:9b:b8:80:
        02:6a:63:49:35:b0:e8:0d:25:a0:0a:f4:ab:4e:bf:60:82:81:
        2d:18:45:c0:98:10:f1:42:e8:06:bc:d7:e3:23:91:5a:e4:63:
        f3:4e:e9:cf:59:76:50:21:5d:6c:ec:7e:cc:bf:61:65:06:9a:
        be:bd:8a:7e:ad:d3:47:5b:f0:ee:ee:ea:db:1c:3b:d4:ce:9f:
        c8:9e:9a:54:5f:d4:b2:5c:49:2b:55:fa:93:8c:d2:07:ac:21:
        f9:7f:41:34:a1:3c:fb:2b:90:62:52:00:e0:c8:85:7c:ed:7f:
        34:42:27:82:9b:53:1e:f0:df:7c:5d:79:bc:79:91:1b:85:a0:
        84:f0:2d:0f:91:0a:3b:13:6f:17:94:73:79:70:71:10:be:e1:
        df:ba:27:d4:67:02:ed:96:f8:2d:ad:5d:11:0a:d7:09:cf:77:
        fa:64:87:e4:2d:37:17:30:c2:f6:42:06:7b:8a:15:dd:e4:7c:
        1b:1e:39:c6:ae:39:4c:17:3f:b8:5f:94:ac:22:29:14:be:92:
        1c:10:0a:b0:d4:2a:fd:9e:3a:52:d7:dc:21:7d:b8:8a:67:e5:
        a4:1a:72:72:4a:84:5f:90:f2:ff:5c:5c:05:0d:dd:30:0d:b1:
        c0:3f:d1:78:3d:2b:93:af:74:b7:c3:6e:95:8a:72:3f:b4:87:
        27:08:16:47:87:ca:24:11:d6:86:a7:9e:0f:f8:43:4c:c0:1b:
        d4:d5:1e:f7:9a:81:4c:11:b7:cb:2c:de:c8:2f:3b:10:46:02:
        53:d1:bc:e7:4c:b7:0f:9f:0a:9f:47:16:33:e1:d4:45:25:b8:
        a4:e1:00:39:18:6e:4f:5e:21:23:f2:35:87:da:ff:47:99:9a:
        e8:21:7e:66:2f:88:68:02:6c:92:39:8c:21:f5:d1:a9:07:df:
        2f:fb:98:73:a8:97:73:e5:c3:db:4e:29:32:ee:c9:80:0c:d2:
        03:d0:25:78:b5:f1:72:41:37:b8:ea:e5:61:e7:75:dc:21:6c:
        d5:55:f8:fd:da:9a:2c:1a:01:21:26:2b:8d:06:b5:2d:d2:a1:
        f8:1e:b7:59:9f:c5:ec:94:aa:4b:0d:c0:61:95:c2:66:f0:14:
        df:ad:d6:05:62:aa:69:d0:5c:ad:8a:ae:62:23:be:bf:34:99:
        b9:4b:6b:6b:85:00:05:9f:5e:58:ca:26:a8:47:dd:80:60:d4:
        9a:9b:85:04:dd:70:7b:c2:b8:4d:0c:97:a1:f3:c5:5a:0a:52:
        98:55:01:10:de:a9:64:20:95:36:43:68:79:6e:dd:6e:14:0b:
        03:51:af:87:32:c4:f2:11
-----BEGIN CERTIFICATE-----
MIIErTCCApWgAwIBAgIBAzANBgkqhkiG9w0BAQsFADByMQswCQYDVQQGEwJFUzES
MBAGA1UECAwJQ2F0YWx1bnlhMRIwEAYDVQQHDAlCYXJjZWxvbmExDDAKBgNVBAoM
A1VQQzENMAsGA1UECwwERE1BRzEeMBwGA1UEAwwVQ2VydGlmaWNhdGUgQXV0aG9y
aXR5MB4XDTI0MDcwNTExMDg1MFoXDTI1MDcwNTExMDg1MFowZjELMAkGA1UEBhMC
RVMxEjAQBgNVBAgMCUNhdGFsdW55YTESMBAGA1UEBwwJQmFyY2Vsb25hMQwwCgYD
VQQKDANVUEMxDTALBgNVBAsMBERNQUcxEjAQBgNVBAMMCWxvY2FsaG9zdDCCASIw
DQYJKoZIhvcNAQEBBQADggEPADCCAQoCggEBAL11wcf/thMW2TO0Qwaj9oSYsPyH
SRrOC+DJCXlGzr78GCuk4kJGytsytfZ8pl7WXNqpAEz1uC+XefgbUiWkqymwmC4k
mr8oeJVD839KLMfrZhFPDAdRYgEVb3BmjaeCoHTZjLBjgFI1N0SHBOpzlTTZl1Ls
ZHR4ot3fMtn0/OQJ7hnS0GWkNzFqwqhrXdi87CnX8HQvPUvcfctfyOCw3GIH8q4f
ceDTkrJYk/cMRzecmpiaOQTy5sYLGOsa3QnfsMxSDT4QowALisuDtZE7A8euhBOT
C1ZURyva5r9v5LvqMY9oyhlAcmQ6xlr9TPPNo9SMMcBE1f5qv/rIqt7ofjcCAwEA
AaNaMFgwHQYDVR0OBBYEFB0ZaqoupD/ZcNPIf3xQ23GkAJymMB8GA1UdIwQYMBaA
FEfU6r1HKeLR+QryZmD2ldmsF6u6MAkGA1UdEwQCMAAwCwYDVR0PBAQDAgWgMA0G
CSqGSIb3DQEBCwUAA4ICAQCHPZiXgpT16NlLORzLk52buIACamNJNbDoDSWgCvSr
Tr9ggoEtGEXAmBDxQugGvNfjI5Fa5GPzTunPWXZQIV1s7H7Mv2FlBpq+vYp+rdNH
W/Du7urbHDvUzp/InppUX9SyXEkrVfqTjNIHrCH5f0E0oTz7K5BiUgDgyIV87X80
QieCm1Me8N98XXm8eZEbhaCE8C0PkQo7E28XlHN5cHEQvuHfuifUZwLtlvgtrV0R
CtcJz3f6ZIfkLTcXMML2QgZ7ihXd5HwbHjnGrjlMFz+4X5SsIikUvpIcEAqw1Cr9
njpS19whfbiKZ+WkGnJySoRfkPL/XFwFDd0wDbHAP9F4PSuTr3S3w26VinI/tIcn
CBZHh8okEdaGp54P+ENMwBvU1R73moFMEbfLLN7ILzsQRgJT0bznTLcPnwqfRxYz
4dRFJbik4QA5GG5PXiEj8jWH2v9HmZroIX5mL4hoAmySOYwh9dGpB98v+5hzqJdz
5cPbTiky7smADNID0CV4tfFyQTe46uVh53XcIWzVVfj92posGgEhJiuNBrUt0qH4
HrdZn8XslKpLDcBhlcJm8BTfrdYFYqpp0Fytiq5iI76/NJm5S2trhQAFn15Yyiao
R92AYNSam4UE3XB7wrhNDJeh88VaClKYVQEQ3qlkIJU2Q2h5bt1uFAsDUa+HMsTy
EQ==
-----END CERTIFICATE-----
