Certificate:
    Data:
        Version: 3 (0x2)
        Serial Number: 1 (0x1)
        Signature Algorithm: sha256WithRSAEncryption
        Issuer: C=ES, ST=Catalunya, L=Barcelona, O=UPC, OU=DMAG, CN=Certificate Authority
        Validity
            Not Before: Jul  5 11:08:39 2024 GMT
            Not After : Jul  5 11:08:39 2025 GMT
        Subject: C=ES, ST=Catalunya, L=Barcelona, O=UPC, OU=DMAG, CN=consumer
        Subject Public Key Info:
            Public Key Algorithm: rsaEncryption
                Public-Key: (2048 bit)
                Modulus:
                    00:dd:93:be:ec:21:32:62:68:fc:65:b4:32:62:13:
                    50:e6:e1:ab:d4:fc:77:08:6b:86:af:50:dc:42:1f:
                    29:5c:31:de:4d:e0:40:d3:18:6f:fc:9c:d0:30:2f:
                    f7:04:79:90:bd:cd:9a:e6:57:68:c8:b0:e3:ae:ff:
                    9d:1f:c0:cd:d0:31:17:2e:f0:17:1c:24:b2:34:e1:
                    3b:77:9e:0e:bc:9b:32:c1:41:46:0e:f7:cb:08:51:
                    59:be:a9:56:3a:a4:9d:db:45:71:34:29:ac:b4:9b:
                    0e:f0:89:e0:07:20:9b:d6:54:6f:36:87:09:2c:22:
                    e1:f5:85:26:5d:96:0b:a6:10:ff:ca:6b:8f:b0:9e:
                    2e:8b:83:1a:2f:78:55:33:63:b2:8e:b4:d3:6d:01:
                    6d:31:3a:db:a3:8b:c6:0b:f5:c4:4f:9a:6a:27:66:
                    cf:5a:ca:49:7b:dd:ed:8a:ea:f1:15:62:0b:b3:66:
                    e6:73:42:02:fa:8a:03:c8:07:26:ca:35:80:b2:7a:
                    c4:bf:5d:33:62:c2:ba:dc:66:9b:cd:6c:49:ea:6d:
                    0d:84:cc:a5:d1:6c:2a:bd:59:73:e8:5d:ea:e7:30:
                    c2:d7:32:e7:71:c9:67:39:19:5a:06:ad:82:b8:20:
                    91:cc:76:80:96:d6:45:05:10:a8:cd:df:97:66:1c:
                    4e:ef
                Exponent: 65537 (0x10001)
        X509v3 extensions:
            X509v3 Subject Key Identifier: 
                23:3F:A9:82:EC:C8:63:98:8D:B2:0C:8F:9C:90:FE:FF:37:15:43:D0
            X509v3 Authority Key Identifier: 
                47:D4:EA:BD:47:29:E2:D1:F9:0A:F2:66:60:F6:95:D9:AC:17:AB:BA
            X509v3 Basic Constraints: 
                CA:FALSE
            X509v3 Key Usage: critical
                Non Repudiation
            Authority Information Access: 
                OCSP - URI:http://localhost:8888
    Signature Algorithm: sha256WithRSAEncryption
    Signature Value:
        94:74:b8:36:2b:1b:44:89:92:50:65:2a:44:9e:ad:10:14:87:
        99:a4:41:b5:a7:e1:10:88:b1:0f:9b:43:dd:af:38:0c:58:e5:
        63:ce:b9:45:dc:a4:5d:35:e0:1e:29:7f:48:ee:18:dd:ff:f6:
        63:e1:8c:a3:69:e7:94:14:f7:5a:67:4d:e6:0c:38:a5:0d:1d:
        66:1c:60:8b:ca:29:c4:89:0b:b9:31:90:2d:fe:48:7e:b8:bd:
        7c:7f:b0:32:b1:20:39:e8:12:d4:c0:bc:57:dc:76:19:a3:fb:
        78:0f:16:20:d8:5f:8f:9a:b2:ca:e2:18:3a:95:cd:53:43:fc:
        98:2a:75:0b:49:de:b1:40:1c:83:bf:b9:71:05:a9:83:34:f3:
        86:11:7e:ca:91:b7:34:7e:f8:00:5a:bd:2e:93:fd:44:9f:56:
        e2:ce:89:d9:d3:fe:1f:f5:7a:fa:da:41:b5:c0:3e:8f:bc:aa:
        50:d1:c1:7e:48:59:cd:f8:b5:5f:87:4a:1d:c3:90:4d:91:b0:
        e9:48:c9:1c:dd:a7:f2:1b:45:6a:65:ef:00:3d:7f:f7:9b:7f:
        f9:bb:0d:ca:15:e5:06:36:ff:43:5d:13:38:b9:dd:62:8a:56:
        d4:6d:08:b9:11:2b:2c:0e:23:ad:df:7f:9f:83:32:78:48:2c:
        a8:06:bb:7f:3f:0a:7b:70:12:72:b5:21:65:61:2c:47:d6:32:
        f5:c2:6c:dd:9b:3b:ca:c8:6b:44:d7:17:46:75:57:fd:1e:83:
        24:27:36:4d:8b:32:b4:16:5e:12:6f:d9:84:a9:c6:10:86:08:
        ae:d0:6d:c1:20:4d:6f:8c:17:87:ac:9f:98:72:45:b5:dd:59:
        ae:13:04:f9:91:48:dd:fb:47:f0:56:09:ff:20:79:44:74:e9:
        dd:72:59:e0:2a:2e:7c:92:d8:08:3e:ca:d3:bd:58:3a:6e:ea:
        11:df:14:14:90:ad:3c:cc:0b:83:6c:0d:a9:07:8f:63:0f:a8:
        e3:0f:13:a8:e8:c0:65:96:15:1c:44:0f:c9:5b:44:79:a6:80:
        ca:cd:b5:06:fe:f9:64:0b:8d:70:50:be:4f:81:db:4f:ea:e6:
        09:09:16:b7:2d:94:8e:7f:69:c4:66:f4:42:37:db:99:a8:60:
        31:00:b2:0f:c7:27:88:68:43:99:7b:33:45:b8:12:57:66:30:
        90:69:ae:e9:b7:5d:88:7c:e0:9e:1f:d8:ab:9b:09:5d:f4:dd:
        f7:40:ee:f3:2b:9e:4a:ae:6e:11:46:a8:0a:c8:a2:9d:01:95:
        66:23:59:53:f4:aa:a7:d9:68:1d:4a:9e:4e:f8:14:8b:f2:d1:
        38:69:d4:3e:10:f1:73:09
-----BEGIN CERTIFICATE-----
MIIE5DCCAsygAwIBAgIBATANBgkqhkiG9w0BAQsFADByMQswCQYDVQQGEwJFUzES
MBAGA1UECAwJQ2F0YWx1bnlhMRIwEAYDVQQHDAlCYXJjZWxvbmExDDAKBgNVBAoM
A1VQQzENMAsGA1UECwwERE1BRzEeMBwGA1UEAwwVQ2VydGlmaWNhdGUgQXV0aG9y
aXR5MB4XDTI0MDcwNTExMDgzOVoXDTI1MDcwNTExMDgzOVowZTELMAkGA1UEBhMC
RVMxEjAQBgNVBAgMCUNhdGFsdW55YTESMBAGA1UEBwwJQmFyY2Vsb25hMQwwCgYD
VQQKDANVUEMxDTALBgNVBAsMBERNQUcxETAPBgNVBAMMCGNvbnN1bWVyMIIBIjAN
BgkqhkiG9w0BAQEFAAOCAQ8AMIIBCgKCAQEA3ZO+7CEyYmj8ZbQyYhNQ5uGr1Px3
CGuGr1DcQh8pXDHeTeBA0xhv/JzQMC/3BHmQvc2a5ldoyLDjrv+dH8DN0DEXLvAX
HCSyNOE7d54OvJsywUFGDvfLCFFZvqlWOqSd20VxNCmstJsO8IngByCb1lRvNocJ
LCLh9YUmXZYLphD/ymuPsJ4ui4MaL3hVM2OyjrTTbQFtMTrbo4vGC/XET5pqJ2bP
WspJe93tiurxFWILs2bmc0IC+ooDyAcmyjWAsnrEv10zYsK63GabzWxJ6m0NhMyl
0WwqvVlz6F3q5zDC1zLncclnORlaBq2CuCCRzHaAltZFBRCozd+XZhxO7wIDAQAB
o4GRMIGOMB0GA1UdDgQWBBQjP6mC7MhjmI2yDI+ckP7/NxVD0DAfBgNVHSMEGDAW
gBRH1Oq9Ryni0fkK8mZg9pXZrBerujAJBgNVHRMEAjAAMA4GA1UdDwEB/wQEAwIG
QDAxBggrBgEFBQcBAQQlMCMwIQYIKwYBBQUHMAGGFWh0dHA6Ly9sb2NhbGhvc3Q6
ODg4ODANBgkqhkiG9w0BAQsFAAOCAgEAlHS4NisbRImSUGUqRJ6tEBSHmaRBtafh
EIixD5tD3a84DFjlY865RdykXTXgHil/SO4Y3f/2Y+GMo2nnlBT3WmdN5gw4pQ0d
Zhxgi8opxIkLuTGQLf5Ifri9fH+wMrEgOegS1MC8V9x2GaP7eA8WINhfj5qyyuIY
OpXNU0P8mCp1C0nesUAcg7+5cQWpgzTzhhF+ypG3NH74AFq9LpP9RJ9W4s6J2dP+
H/V6+tpBtcA+j7yqUNHBfkhZzfi1X4dKHcOQTZGw6UjJHN2n8htFamXvAD1/95t/
+bsNyhXlBjb/Q10TOLndYopW1G0IuRErLA4jrd9/n4MyeEgsqAa7fz8Ke3AScrUh
ZWEsR9Yy9cJs3Zs7yshrRNcXRnVX/R6DJCc2TYsytBZeEm/ZhKnGEIYIrtBtwSBN
b4wXh6yfmHJFtd1ZrhME+ZFI3ftH8FYJ/yB5RHTp3XJZ4CoufJLYCD7K071YOm7q
Ed8UFJCtPMwLg2wNqQePYw+o4w8TqOjAZZYVHEQPyVtEeaaAys21Bv75ZAuNcFC+
T4HbT+rmCQkWty2Ujn9pxGb0QjfbmahgMQCyD8cniGhDmXszRbgSV2YwkGmu6bdd
iHzgnh/Yq5sJXfTd90Du8yueSq5uEUaoCsiinQGVZiNZU/Sqp9loHUqeTvgUi/LR
OGnUPhDxcwk=
-----END CERTIFICATE-----
